target datalayout = "e-m:e-p270:32:32-p271:32:32-p272:64:64-i64:64-i128:128-f80:128-n8:16:32:64-S128"
target triple = "x86_64-pc-linux-gnu"

%struct._value_string = type { i32, ptr }

@hf_uci_parameters_count = internal global i32 0, align 4
@hf_uci_parameter_type = internal global i32 0, align 4
@parameter_type_vals = internal constant [3 x %struct._value_string] [%struct._value_string { i32 0, ptr @.str.14 }, %struct._value_string { i32 1, ptr @.str.193 }, %struct._value_string zeroinitializer], align 16
@hf_uci_parameter_len = internal global i32 0, align 4
@hf_uci_parameter_value = internal global i32 0, align 4
@ett_uci_parameters = internal global i32 0, align 4
@ett_uci_parameter = internal global i32 0, align 4
@.str.280 = private unnamed_addr constant [17 x i8] c"Unknown (0x%02x)\00", align 1
@.str.284 = private unnamed_addr constant [11 x i8] c"Parameters\00", align 1

; Function Attrs: nounwind uwtable
define internal void @dissect_parameters(ptr noundef %0, i32 noundef %1, ptr noundef %2, ptr noundef %3) #0 {
  %5 = alloca ptr, align 8
  %6 = alloca i32, align 4
  %7 = alloca ptr, align 8
  %8 = alloca ptr, align 8
  %9 = alloca i32, align 4
  %10 = alloca ptr, align 8
  %11 = alloca i32, align 4
  %12 = alloca i32, align 4
  %13 = alloca i32, align 4
  %14 = alloca ptr, align 8
  store ptr %0, ptr %5, align 8
  store i32 %1, ptr %6, align 4
  store ptr %2, ptr %7, align 8
  store ptr %3, ptr %8, align 8
  %15 = load ptr, ptr %5, align 8
  %16 = load i32, ptr %6, align 4
  %17 = call zeroext i8 @tvb_get_guint8(ptr noundef %15, i32 noundef %16)
  %18 = zext i8 %17 to i32
  store i32 %18, ptr %9, align 4
  %19 = load ptr, ptr %8, align 8
  %20 = load i32, ptr @hf_uci_parameters_count, align 4
  %21 = load ptr, ptr %5, align 8
  %22 = load i32, ptr %6, align 4
  %23 = call ptr @proto_tree_add_item(ptr noundef %19, i32 noundef %20, ptr noundef %21, i32 noundef %22, i32 noundef 1, i32 noundef 0)
  %24 = load i32, ptr %6, align 4
  %25 = add i32 %24, 1
  store i32 %25, ptr %6, align 4
  %26 = load i32, ptr %9, align 4
  %27 = icmp eq i32 %26, 0
  br i1 %27, label %28, label %29

28:                                               ; preds = %4
  br label %85

29:                                               ; preds = %4
  %30 = load ptr, ptr %8, align 8
  %31 = load ptr, ptr %5, align 8
  %32 = load i32, ptr %6, align 4
  %33 = load i32, ptr @ett_uci_parameters, align 4
  %34 = call ptr @proto_tree_add_subtree(ptr noundef %30, ptr noundef %31, i32 noundef %32, i32 noundef -1, i32 noundef %33, ptr noundef null, ptr noundef @.str.284)
  store ptr %34, ptr %10, align 8
  store i32 0, ptr %11, align 4
  br label %35

35:                                               ; preds = %82, %29
  %36 = load i32, ptr %11, align 4
  %37 = load i32, ptr %9, align 4
  %38 = icmp slt i32 %36, %37
  br i1 %38, label %39, label %85

39:                                               ; preds = %35
  %40 = load ptr, ptr %5, align 8
  %41 = load i32, ptr %6, align 4
  %42 = add i32 %41, 0
  %43 = call zeroext i8 @tvb_get_guint8(ptr noundef %40, i32 noundef %42)
  %44 = zext i8 %43 to i32
  store i32 %44, ptr %12, align 4
  %45 = load ptr, ptr %5, align 8
  %46 = load i32, ptr %6, align 4
  %47 = add i32 %46, 1
  %48 = call zeroext i8 @tvb_get_guint8(ptr noundef %45, i32 noundef %47)
  %49 = zext i8 %48 to i32
  store i32 %49, ptr %13, align 4
  %50 = load ptr, ptr %10, align 8
  %51 = load ptr, ptr %5, align 8
  %52 = load i32, ptr %6, align 4
  %53 = load i32, ptr %13, align 4
  %54 = add i32 2, %53
  %55 = load i32, ptr @ett_uci_parameter, align 4
  %56 = load i32, ptr %12, align 4
  %57 = call ptr @val_to_str(i32 noundef %56, ptr noundef @parameter_type_vals, ptr noundef @.str.280)
  %58 = call ptr @proto_tree_add_subtree(ptr noundef %50, ptr noundef %51, i32 noundef %52, i32 noundef %54, i32 noundef %55, ptr noundef null, ptr noundef %57)
  store ptr %58, ptr %14, align 8
  %59 = load ptr, ptr %14, align 8
  %60 = load i32, ptr @hf_uci_parameter_type, align 4
  %61 = load ptr, ptr %5, align 8
  %62 = load i32, ptr %6, align 4
  %63 = call ptr @proto_tree_add_item(ptr noundef %59, i32 noundef %60, ptr noundef %61, i32 noundef %62, i32 noundef 1, i32 noundef 0)
  %64 = load i32, ptr %6, align 4
  %65 = add i32 %64, 1
  store i32 %65, ptr %6, align 4
  %66 = load ptr, ptr %14, align 8
  %67 = load i32, ptr @hf_uci_parameter_len, align 4
  %68 = load ptr, ptr %5, align 8
  %69 = load i32, ptr %6, align 4
  %70 = call ptr @proto_tree_add_item(ptr noundef %66, i32 noundef %67, ptr noundef %68, i32 noundef %69, i32 noundef 1, i32 noundef 0)
  %71 = load i32, ptr %6, align 4
  %72 = add i32 %71, 1
  store i32 %72, ptr %6, align 4
  %73 = load ptr, ptr %14, align 8
  %74 = load i32, ptr @hf_uci_parameter_value, align 4
  %75 = load ptr, ptr %5, align 8
  %76 = load i32, ptr %6, align 4
  %77 = load i32, ptr %13, align 4
  %78 = call ptr @proto_tree_add_item(ptr noundef %73, i32 noundef %74, ptr noundef %75, i32 noundef %76, i32 noundef %77, i32 noundef 0)
  %79 = load i32, ptr %13, align 4
  %80 = load i32, ptr %6, align 4
  %81 = add i32 %80, %79
  store i32 %81, ptr %6, align 4
  br label %82

82:                                               ; preds = %39
  %83 = load i32, ptr %11, align 4
  %84 = add i32 %83, 1
  store i32 %84, ptr %11, align 4
  br label %35, !llvm.loop !8

85:                                               ; preds = %35, %28
  ret void
}